target datalayout = "e-m:e-p270:32:32-p271:32:32-p272:64:64-i64:64-i128:128-f80:128-n8:16:32:64-S128"
target triple = "x86_64-pc-linux-gnu"

%"class.pxrInternal_v0_24__pxrReserved__::pxr_double_conversion::Bignum" = type { i16, i16, [128 x i32] }

; Function Attrs: mustprogress nounwind uwtable
define linkonce_odr void @_ZN32pxrInternal_v0_24__pxrReserved__21pxr_double_conversion6Bignum14EnsureCapacityEi(i32 noundef %0) #0 comdat align 2 {
  %2 = alloca i32, align 4
  store i32 %0, ptr %2, align 4
  %3 = load i32, ptr %2, align 4
  %4 = icmp sgt i32 %3, 128
  br i1 %4, label %5, label %6

5:                                                ; preds = %1
  call void @abort() #4
  unreachable

6:                                                ; preds = %1
  ret void
}

; Function Attrs: mustprogress nounwind uwtable
define noundef nonnull align 4 dereferenceable(4) ptr @_ZN32pxrInternal_v0_24__pxrReserved__21pxr_double_conversion6Bignum8RawBigitEi(ptr noundef nonnull align 4 dereferenceable(516) %0, i32 noundef %1) #0 align 2 {
  %3 = alloca ptr, align 8
  %4 = alloca i32, align 4
  store ptr %0, ptr %3, align 8
  store i32 %1, ptr %4, align 4
  %5 = load ptr, ptr %3, align 8
  %6 = getelementptr inbounds nuw %"class.pxrInternal_v0_24__pxrReserved__::pxr_double_conversion::Bignum", ptr %5, i32 0, i32 2
  %7 = load i32, ptr %4, align 4
  %8 = sext i32 %7 to i64
  %9 = getelementptr inbounds [128 x i32], ptr %6, i64 0, i64 %8
  ret ptr %9
}

; Function Attrs: mustprogress nounwind uwtable
define linkonce_odr void @_ZN32pxrInternal_v0_24__pxrReserved__21pxr_double_conversion6Bignum4ZeroEv(ptr noundef nonnull align 4 dereferenceable(516) %0) #0 comdat align 2 {
  %2 = alloca ptr, align 8
  store ptr %0, ptr %2, align 8
  %3 = load ptr, ptr %2, align 8
  %4 = getelementptr inbounds nuw %"class.pxrInternal_v0_24__pxrReserved__::pxr_double_conversion::Bignum", ptr %3, i32 0, i32 0
  store i16 0, ptr %4, align 4
  %5 = getelementptr inbounds nuw %"class.pxrInternal_v0_24__pxrReserved__::pxr_double_conversion::Bignum", ptr %3, i32 0, i32 1
  store i16 0, ptr %5, align 2
  ret void
}

; Function Attrs: mustprogress uwtable
define void @_ZN32pxrInternal_v0_24__pxrReserved__21pxr_double_conversion6Bignum16MultiplyByUInt64Em(ptr noundef nonnull align 4 dereferenceable(516) %0, i64 noundef %1) #1 align 2 {
  %3 = alloca ptr, align 8
  %4 = alloca i64, align 8
  %5 = alloca i64, align 8
  %6 = alloca i64, align 8
  %7 = alloca i64, align 8
  %8 = alloca i32, align 4
  %9 = alloca i64, align 8
  %10 = alloca i64, align 8
  %11 = alloca i64, align 8
  store ptr %0, ptr %3, align 8
  store i64 %1, ptr %4, align 8
  %12 = load ptr, ptr %3, align 8
  %13 = load i64, ptr %4, align 8
  %14 = icmp eq i64 %13, 1
  br i1 %14, label %15, label %16

15:                                               ; preds = %2
  br label %91

16:                                               ; preds = %2
  %17 = load i64, ptr %4, align 8
  %18 = icmp eq i64 %17, 0
  br i1 %18, label %19, label %20

19:                                               ; preds = %16
  call void @_ZN32pxrInternal_v0_24__pxrReserved__21pxr_double_conversion6Bignum4ZeroEv(ptr noundef nonnull align 4 dereferenceable(516) %12)
  br label %91

20:                                               ; preds = %16
  %21 = getelementptr inbounds nuw %"class.pxrInternal_v0_24__pxrReserved__::pxr_double_conversion::Bignum", ptr %12, i32 0, i32 0
  %22 = load i16, ptr %21, align 4
  %23 = sext i16 %22 to i32
  %24 = icmp eq i32 %23, 0
  br i1 %24, label %25, label %26

25:                                               ; preds = %20
  br label %91

26:                                               ; preds = %20
  store i64 0, ptr %5, align 8
  %27 = load i64, ptr %4, align 8
  %28 = and i64 %27, 4294967295
  store i64 %28, ptr %6, align 8
  %29 = load i64, ptr %4, align 8
  %30 = lshr i64 %29, 32
  store i64 %30, ptr %7, align 8
  store i32 0, ptr %8, align 4
  br label %31

31:                                               ; preds = %67, %26
  %32 = load i32, ptr %8, align 4
  %33 = getelementptr inbounds nuw %"class.pxrInternal_v0_24__pxrReserved__::pxr_double_conversion::Bignum", ptr %12, i32 0, i32 0
  %34 = load i16, ptr %33, align 4
  %35 = sext i16 %34 to i32
  %36 = icmp slt i32 %32, %35
  br i1 %36, label %37, label %70

37:                                               ; preds = %31
  %38 = load i64, ptr %6, align 8
  %39 = load i32, ptr %8, align 4
  %40 = call noundef nonnull align 4 dereferenceable(4) ptr @_ZN32pxrInternal_v0_24__pxrReserved__21pxr_double_conversion6Bignum8RawBigitEi(ptr noundef nonnull align 4 dereferenceable(516) %12, i32 noundef %39)
  %41 = load i32, ptr %40, align 4
  %42 = zext i32 %41 to i64
  %43 = mul i64 %38, %42
  store i64 %43, ptr %9, align 8
  %44 = load i64, ptr %7, align 8
  %45 = load i32, ptr %8, align 4
  %46 = call noundef nonnull align 4 dereferenceable(4) ptr @_ZN32pxrInternal_v0_24__pxrReserved__21pxr_double_conversion6Bignum8RawBigitEi(ptr noundef nonnull align 4 dereferenceable(516) %12, i32 noundef %45)
  %47 = load i32, ptr %46, align 4
  %48 = zext i32 %47 to i64
  %49 = mul i64 %44, %48
  store i64 %49, ptr %10, align 8
  %50 = load i64, ptr %5, align 8
  %51 = and i64 %50, 268435455
  %52 = load i64, ptr %9, align 8
  %53 = add i64 %51, %52
  store i64 %53, ptr %11, align 8
  %54 = load i64, ptr %11, align 8
  %55 = and i64 %54, 268435455
  %56 = trunc i64 %55 to i32
  %57 = load i32, ptr %8, align 4
  %58 = call noundef nonnull align 4 dereferenceable(4) ptr @_ZN32pxrInternal_v0_24__pxrReserved__21pxr_double_conversion6Bignum8RawBigitEi(ptr noundef nonnull align 4 dereferenceable(516) %12, i32 noundef %57)
  store i32 %56, ptr %58, align 4
  %59 = load i64, ptr %5, align 8
  %60 = lshr i64 %59, 28
  %61 = load i64, ptr %11, align 8
  %62 = lshr i64 %61, 28
  %63 = add i64 %60, %62
  %64 = load i64, ptr %10, align 8
  %65 = shl i64 %64, 4
  %66 = add i64 %63, %65
  store i64 %66, ptr %5, align 8
  br label %67

67:                                               ; preds = %37
  %68 = load i32, ptr %8, align 4
  %69 = add nsw i32 %68, 1
  store i32 %69, ptr %8, align 4
  br label %31, !llvm.loop !23

70:                                               ; preds = %31
  br label %71

71:                                               ; preds = %74, %70
  %72 = load i64, ptr %5, align 8
  %73 = icmp ne i64 %72, 0
  br i1 %73, label %74, label %91

74:                                               ; preds = %71
  %75 = getelementptr inbounds nuw %"class.pxrInternal_v0_24__pxrReserved__::pxr_double_conversion::Bignum", ptr %12, i32 0, i32 0
  %76 = load i16, ptr %75, align 4
  %77 = sext i16 %76 to i32
  %78 = add nsw i32 %77, 1
  call void @_ZN32pxrInternal_v0_24__pxrReserved__21pxr_double_conversion6Bignum14EnsureCapacityEi(i32 noundef %78)
  %79 = load i64, ptr %5, align 8
  %80 = and i64 %79, 268435455
  %81 = trunc i64 %80 to i32
  %82 = getelementptr inbounds nuw %"class.pxrInternal_v0_24__pxrReserved__::pxr_double_conversion::Bignum", ptr %12, i32 0, i32 0
  %83 = load i16, ptr %82, align 4
  %84 = sext i16 %83 to i32
  %85 = call noundef nonnull align 4 dereferenceable(4) ptr @_ZN32pxrInternal_v0_24__pxrReserved__21pxr_double_conversion6Bignum8RawBigitEi(ptr noundef nonnull align 4 dereferenceable(516) %12, i32 noundef %84)
  store i32 %81, ptr %85, align 4
  %86 = getelementptr inbounds nuw %"class.pxrInternal_v0_24__pxrReserved__::pxr_double_conversion::Bignum", ptr %12, i32 0, i32 0
  %87 = load i16, ptr %86, align 4
  %88 = add i16 %87, 1
  store i16 %88, ptr %86, align 4
  %89 = load i64, ptr %5, align 8
  %90 = lshr i64 %89, 28
  store i64 %90, ptr %5, align 8
  br label %71, !llvm.loop !24

91:                                               ; preds = %71, %25, %19, %15
  ret void
}